(dp0
I0
c__builtin__
set
p1
((lp2
tp3
Rp4
sI1
g1
((lp5
I39250316
aI44783853
aI18170896
aI6450322
aI23864985
aI25928253
aI23999515
aI15134240
aI25093616
aI38531995
aI18169636
aI11856422
aI16164520
aI22019881
aI15587500
aI26810542
aI22752559
aI14282672
aI86697288
aI15566901
aI19658936
aI21898041
aI22708797
aI14499829
aI25087685
aI17918663
aI53039176
aI1769551
aI14592723
aI15368404
aI13787352
aI20436059
aI16561884
aI6519522
aI28160998
aI621543
aI70837868
aI27922157
aI18126845
aI41602160
aI18058609
aI16300786
aI146569971
aI15235829
aI14882900
aI16616061
aI8082302
atp6
Rp7
s.